---
triple:          'arm64-apple-darwin'
binary-path:     simple_tcp_server
relocations:
  - { offset: 0x1E, size: 0x8, addend: 0x0, symName: '__ZN104_$LT$std..thread..Builder..spawn_unchecked_..MaybeDangling$LT$T$GT$$u20$as$u20$core..ops..drop..Drop$GT$4drop17he140482ca283355fE', symObjAddr: 0x0, symBinAddr: 0x100003168, symSize: 0x2C }
  - { offset: 0xEF, size: 0x8, addend: 0x0, symName: '__ZN104_$LT$std..thread..Builder..spawn_unchecked_..MaybeDangling$LT$T$GT$$u20$as$u20$core..ops..drop..Drop$GT$4drop17he140482ca283355fE', symObjAddr: 0x0, symBinAddr: 0x100003168, symSize: 0x2C }
  - { offset: 0x16E, size: 0x8, addend: 0x0, symName: '__ZN3std6thread7Builder16spawn_unchecked_28_$u7b$$u7b$closure$u7d$$u7d$28_$u7b$$u7b$closure$u7d$$u7d$17h1afd881e4d2fd3b2E', symObjAddr: 0x28E4, symBinAddr: 0x100005A4C, symSize: 0x20 }
  - { offset: 0x1AB, size: 0x8, addend: 0x0, symName: '__ZN3std6thread7Builder16spawn_unchecked_28_$u7b$$u7b$closure$u7d$$u7d$17h1523b89423aa74c9E', symObjAddr: 0x24B8, symBinAddr: 0x100005620, symSize: 0x298 }
  - { offset: 0x4E0, size: 0x8, addend: 0x0, symName: '__ZN3std6thread7Builder16spawn_unchecked_28_$u7b$$u7b$closure$u7d$$u7d$28_$u7b$$u7b$closure$u7d$$u7d$17h3b48cd301fd0673fE', symObjAddr: 0x2904, symBinAddr: 0x100005A6C, symSize: 0x158 }
  - { offset: 0x658, size: 0x8, addend: 0x0, symName: '__ZN3std6thread7Builder16spawn_unchecked_28_$u7b$$u7b$closure$u7d$$u7d$17h44d75ae809a14b62E', symObjAddr: 0x2750, symBinAddr: 0x1000058B8, symSize: 0x14C }
  - { offset: 0x790, size: 0x8, addend: 0x0, symName: '__ZN3std6thread7Builder16spawn_unchecked_28_$u7b$$u7b$closure$u7d$$u7d$17ha6b00e54571b168eE', symObjAddr: 0x289C, symBinAddr: 0x100005A04, symSize: 0x48 }
  - { offset: 0xA9C, size: 0x8, addend: 0x0, symName: __ZN3std6thread5spawn17h3a30400a211ede17E, symObjAddr: 0x1AEC, symBinAddr: 0x100004C54, symSize: 0x8C }
  - { offset: 0xB68, size: 0x8, addend: 0x0, symName: '__ZN70_$LT$std..thread..Packet$LT$T$GT$$u20$as$u20$core..ops..drop..Drop$GT$4drop28_$u7b$$u7b$closure$u7d$$u7d$17hec21ae04eeeeb5e1E', symObjAddr: 0x320C, symBinAddr: 0x100006374, symSize: 0x7C }
  - { offset: 0xB9F, size: 0x8, addend: 0x0, symName: '__ZN70_$LT$std..thread..Packet$LT$T$GT$$u20$as$u20$core..ops..drop..Drop$GT$4drop17h6d3b1549bbdf6c9cE', symObjAddr: 0x3024, symBinAddr: 0x10000618C, symSize: 0x1E8 }
  - { offset: 0xF66, size: 0x8, addend: 0x0, symName: '__ZN80_$LT$std..io..Write..write_fmt..Adapter$LT$T$GT$$u20$as$u20$core..fmt..Write$GT$9write_str17h942b113eebc732ddE', symObjAddr: 0x3B78, symBinAddr: 0x100006CE0, symSize: 0xB8 }
  - { offset: 0x10A6, size: 0x8, addend: 0x0, symName: '__ZN3std2io5error14repr_bitpacked4Repr4data28_$u7b$$u7b$closure$u7d$$u7d$17ha92f1de8afe37680E', symObjAddr: 0x193C, symBinAddr: 0x100004AA4, symSize: 0x14 }
  - { offset: 0x10DE, size: 0x8, addend: 0x0, symName: __ZN3std2io5error14repr_bitpacked11decode_repr17h5a47cc7af571db99E, symObjAddr: 0xD98, symBinAddr: 0x100003F00, symSize: 0x23C }
  - { offset: 0x1474, size: 0x8, addend: 0x0, symName: '__ZN78_$LT$std..io..error..repr_bitpacked..Repr$u20$as$u20$core..ops..drop..Drop$GT$4drop28_$u7b$$u7b$closure$u7d$$u7d$17h875da776e2b6ae72E', symObjAddr: 0x3B2C, symBinAddr: 0x100006C94, symSize: 0x4C }
  - { offset: 0x1561, size: 0x8, addend: 0x0, symName: '__ZN78_$LT$std..io..error..repr_bitpacked..Repr$u20$as$u20$core..ops..drop..Drop$GT$4drop17hafed594b594f76f6E', symObjAddr: 0x3AF4, symBinAddr: 0x100006C5C, symSize: 0x38 }
  - { offset: 0x158A, size: 0x8, addend: 0x0, symName: __ZN3std2io5error14repr_bitpacked11decode_repr17hc6d6a4f40b440875E, symObjAddr: 0xFD4, symBinAddr: 0x10000413C, symSize: 0x23C }
  - { offset: 0x190F, size: 0x8, addend: 0x0, symName: __ZN3std2io5error14repr_bitpacked14kind_from_prim17h15773b96d3029d14E, symObjAddr: 0x1210, symBinAddr: 0x100004378, symSize: 0x72C }
  - { offset: 0x23DB, size: 0x8, addend: 0x0, symName: '__ZN3std2io22default_read_to_string28_$u7b$$u7b$closure$u7d$$u7d$17h9adc008d252109e3E', symObjAddr: 0xD54, symBinAddr: 0x100003EBC, symSize: 0x44 }
  - { offset: 0x2436, size: 0x8, addend: 0x0, symName: __ZN3std2io16append_to_string17he842ba7dbeb588eeE, symObjAddr: 0x2C, symBinAddr: 0x100003194, symSize: 0x1CC }
  - { offset: 0x25F5, size: 0x8, addend: 0x0, symName: __ZN3std2io19default_read_to_end16small_probe_read17hddf8077c943551ccE, symObjAddr: 0x1F8, symBinAddr: 0x100003360, symSize: 0x254 }
  - { offset: 0x28C5, size: 0x8, addend: 0x0, symName: '__ZN3std2io19default_read_to_end28_$u7b$$u7b$closure$u7d$$u7d$17hbb67d79d62b44038E', symObjAddr: 0xC8C, symBinAddr: 0x100003DF4, symSize: 0xC8 }
  - { offset: 0x29F8, size: 0x8, addend: 0x0, symName: __ZN3std2io19default_read_to_end17h24655e1c8b099726E, symObjAddr: 0x44C, symBinAddr: 0x1000035B4, symSize: 0x840 }
  - { offset: 0x377B, size: 0x8, addend: 0x0, symName: '__ZN56_$LT$std..io..Guard$u20$as$u20$core..ops..drop..Drop$GT$4drop17hd594f02efc022e89E', symObjAddr: 0x2B58, symBinAddr: 0x100005CC0, symSize: 0x2C }
  - { offset: 0x4C22, size: 0x8, addend: 0x0, symName: '__ZN4core3ptr9const_ptr33_$LT$impl$u20$$BP$const$u20$T$GT$7sub_ptr17h51aa0b04b3746f43E', symObjAddr: 0x2AF0, symBinAddr: 0x100005C58, symSize: 0x68 }
  - { offset: 0x6AB3, size: 0x8, addend: 0x0, symName: __ZN4core3fmt5Write10write_char17h02ffa5b4fd8f0bf2E, symObjAddr: 0x2A5C, symBinAddr: 0x100005BC4, symSize: 0x70 }
  - { offset: 0x6B29, size: 0x8, addend: 0x0, symName: __ZN4core3fmt5Write9write_fmt17hce1838140dd2e003E, symObjAddr: 0x2ACC, symBinAddr: 0x100005C34, symSize: 0x24 }
  - { offset: 0x6B77, size: 0x8, addend: 0x0, symName: '__ZN75_$LT$$RF$mut$u20$W$u20$as$u20$core..fmt..Write..write_fmt..SpecWriteFmt$GT$14spec_write_fmt17h21239ce4393059e5E', symObjAddr: 0x3A48, symBinAddr: 0x100006BB0, symSize: 0xAC }
  - { offset: 0x7D5C, size: 0x8, addend: 0x0, symName: '__ZN68_$LT$alloc..sync..Arc$LT$T$C$A$GT$$u20$as$u20$core..clone..Clone$GT$5clone17h26b5e01b06519530E', symObjAddr: 0x2E08, symBinAddr: 0x100005F70, symSize: 0xB4 }
  - { offset: 0x7EF0, size: 0x8, addend: 0x0, symName: '__ZN68_$LT$alloc..sync..Arc$LT$T$C$A$GT$$u20$as$u20$core..clone..Clone$GT$5clone17h4d997e7d4210d7fbE', symObjAddr: 0x2EBC, symBinAddr: 0x100006024, symSize: 0xB4 }
  - { offset: 0x8084, size: 0x8, addend: 0x0, symName: '__ZN68_$LT$alloc..sync..Arc$LT$T$C$A$GT$$u20$as$u20$core..clone..Clone$GT$5clone17h815895c3d39766c2E', symObjAddr: 0x2F70, symBinAddr: 0x1000060D8, symSize: 0xB4 }
  - { offset: 0x821E, size: 0x8, addend: 0x0, symName: '__ZN71_$LT$alloc..sync..Arc$LT$T$C$A$GT$$u20$as$u20$core..ops..drop..Drop$GT$4drop17h05636bc765235bc0E', symObjAddr: 0x3288, symBinAddr: 0x1000063F0, symSize: 0xA8 }
  - { offset: 0x837D, size: 0x8, addend: 0x0, symName: '__ZN71_$LT$alloc..sync..Arc$LT$T$C$A$GT$$u20$as$u20$core..ops..drop..Drop$GT$4drop17h22240bfc3af0d774E', symObjAddr: 0x3330, symBinAddr: 0x100006498, symSize: 0xA8 }
  - { offset: 0x84DC, size: 0x8, addend: 0x0, symName: '__ZN71_$LT$alloc..sync..Arc$LT$T$C$A$GT$$u20$as$u20$core..ops..drop..Drop$GT$4drop17h29dcaa5ec6814c15E', symObjAddr: 0x33D8, symBinAddr: 0x100006540, symSize: 0xA8 }
  - { offset: 0x863B, size: 0x8, addend: 0x0, symName: '__ZN71_$LT$alloc..sync..Arc$LT$T$C$A$GT$$u20$as$u20$core..ops..drop..Drop$GT$4drop17he3dd68d751220f3aE', symObjAddr: 0x3480, symBinAddr: 0x1000065E8, symSize: 0xA8 }
  - { offset: 0x87C1, size: 0x8, addend: 0x0, symName: '__ZN72_$LT$alloc..sync..Weak$LT$T$C$A$GT$$u20$as$u20$core..ops..drop..Drop$GT$4drop17h08d232416c8910e8E', symObjAddr: 0x3528, symBinAddr: 0x100006690, symSize: 0x148 }
  - { offset: 0x8ADB, size: 0x8, addend: 0x0, symName: '__ZN72_$LT$alloc..sync..Weak$LT$T$C$A$GT$$u20$as$u20$core..ops..drop..Drop$GT$4drop17h269ac768baa37542E', symObjAddr: 0x3670, symBinAddr: 0x1000067D8, symSize: 0x148 }
  - { offset: 0x8DF5, size: 0x8, addend: 0x0, symName: '__ZN72_$LT$alloc..sync..Weak$LT$T$C$A$GT$$u20$as$u20$core..ops..drop..Drop$GT$4drop17hbe1b769aff628b2cE', symObjAddr: 0x37B8, symBinAddr: 0x100006920, symSize: 0x148 }
  - { offset: 0x910F, size: 0x8, addend: 0x0, symName: '__ZN72_$LT$alloc..sync..Weak$LT$T$C$A$GT$$u20$as$u20$core..ops..drop..Drop$GT$4drop17hec2588d6b34d1c94E', symObjAddr: 0x3900, symBinAddr: 0x100006A68, symSize: 0x148 }
  - { offset: 0xA516, size: 0x8, addend: 0x0, symName: '__ZN3std6thread18JoinInner$LT$T$GT$4join17h1ac88cc8517cb89fE', symObjAddr: 0x1950, symBinAddr: 0x100004AB8, symSize: 0x168 }
  - { offset: 0xA6D7, size: 0x8, addend: 0x0, symName: '__ZN3std6thread19JoinHandle$LT$T$GT$4join17hbf476216434916c7E', symObjAddr: 0x1AB8, symBinAddr: 0x100004C20, symSize: 0x34 }
  - { offset: 0xA880, size: 0x8, addend: 0x0, symName: __ZN3std6thread6Thread5cname17hd6f839e0648ff49cE, symObjAddr: 0x1B78, symBinAddr: 0x100004CE0, symSize: 0xE0 }
  - { offset: 0xAA55, size: 0x8, addend: 0x0, symName: __ZN3std6thread7Builder15spawn_unchecked17h3b95285f995a5741E, symObjAddr: 0x1C58, symBinAddr: 0x100004DC0, symSize: 0xD4 }
  - { offset: 0xAF72, size: 0x8, addend: 0x0, symName: __ZN3std6thread7Builder16spawn_unchecked_17h4045498596515ae2E, symObjAddr: 0x1D2C, symBinAddr: 0x100004E94, symSize: 0x78C }
  - { offset: 0xBC3F, size: 0x8, addend: 0x0, symName: '__ZN5alloc4sync16Arc$LT$T$C$A$GT$9drop_slow17h6c86ed0379f57f08E', symObjAddr: 0x2B84, symBinAddr: 0x100005CEC, symSize: 0x50 }
  - { offset: 0xBD0D, size: 0x8, addend: 0x0, symName: '__ZN5alloc4sync16Arc$LT$T$C$A$GT$9drop_slow17h6cd40bf8dbb308fbE', symObjAddr: 0x2BD4, symBinAddr: 0x100005D3C, symSize: 0x50 }
  - { offset: 0xBDDB, size: 0x8, addend: 0x0, symName: '__ZN5alloc4sync16Arc$LT$T$C$A$GT$9drop_slow17h858a0680396a2cf9E', symObjAddr: 0x2C24, symBinAddr: 0x100005D8C, symSize: 0x50 }
  - { offset: 0xBE8F, size: 0x8, addend: 0x0, symName: '__ZN5alloc4sync16Arc$LT$T$C$A$GT$9drop_slow17hcd91d7843a80c1ebE', symObjAddr: 0x2C74, symBinAddr: 0x100005DDC, symSize: 0x50 }
  - { offset: 0xC0F1, size: 0x8, addend: 0x0, symName: '__ZN5alloc4sync16Arc$LT$T$C$A$GT$9is_unique17he9f2899ba0a73287E', symObjAddr: 0x2CC4, symBinAddr: 0x100005E2C, symSize: 0x144 }
  - { offset: 0xD0C8, size: 0x8, addend: 0x0, symName: '__ZN105_$LT$std..ffi..os_str..OsString$u20$as$u20$core..ops..index..Index$LT$core..ops..range..RangeFull$GT$$GT$5index17h35440cb849ba157bE', symObjAddr: 0x0, symBinAddr: 0x100006D98, symSize: 0x88 }
  - { offset: 0xD12F, size: 0x8, addend: 0x0, symName: __ZN3std2io5Write9write_all17hc79a14b7826333c2E, symObjAddr: 0x234, symBinAddr: 0x100006FCC, symSize: 0x184 }
  - { offset: 0xD1DF, size: 0x8, addend: 0x0, symName: __ZN3std2io5Write9write_fmt17h4e7f22957757ba47E, symObjAddr: 0x3B8, symBinAddr: 0x100007150, symSize: 0x128 }
  - { offset: 0xD5A5, size: 0x8, addend: 0x0, symName: __ZN3std2io4Read14read_to_string17h01f0b9b0c2c8ad14E, symObjAddr: 0x1C0, symBinAddr: 0x100006F58, symSize: 0x74 }
  - { offset: 0xD7EB, size: 0x8, addend: 0x0, symName: '__ZN3std2rt10lang_start28_$u7b$$u7b$closure$u7d$$u7d$17hdeea412312a707e0E', symObjAddr: 0x54C, symBinAddr: 0x1000072E4, symSize: 0x3C }
  - { offset: 0xD87A, size: 0x8, addend: 0x0, symName: __ZN3std2rt10lang_start17hcb8f21ccc8410bd1E, symObjAddr: 0x4E0, symBinAddr: 0x100007278, symSize: 0x6C }
  - { offset: 0xD8E9, size: 0x8, addend: 0x0, symName: '__ZN105_$LT$std..ffi..os_str..OsString$u20$as$u20$core..ops..index..Index$LT$core..ops..range..RangeFull$GT$$GT$5index17h35440cb849ba157bE', symObjAddr: 0x0, symBinAddr: 0x100006D98, symSize: 0x88 }
  - { offset: 0xDAD0, size: 0x8, addend: 0x0, symName: '__ZN3std3ffi6os_str85_$LT$impl$u20$core..convert..AsRef$LT$std..ffi..os_str..OsStr$GT$$u20$for$u20$str$GT$6as_ref17hf9e950a4d28f462dE', symObjAddr: 0x5F0, symBinAddr: 0x100007388, symSize: 0x30 }
  - { offset: 0xDBD3, size: 0x8, addend: 0x0, symName: __ZN3std3net3tcp11TcpListener17h18c7f196f3facc12E, symObjAddr: 0x620, symBinAddr: 0x1000073B8, symSize: 0x18 }
  - { offset: 0xDC95, size: 0x8, addend: 0x0, symName: __ZN3std3net9each_addr17hc9e3e9c2bae22b10E, symObjAddr: 0x6D0, symBinAddr: 0x100007468, symSize: 0x324 }
  - { offset: 0xDE33, size: 0x8, addend: 0x0, symName: '__ZN62_$LT$$RF$T$u20$as$u20$std..net..socket_addr..ToSocketAddrs$GT$15to_socket_addrs17hd7a88f6109d984e3E', symObjAddr: 0x4020, symBinAddr: 0x10000ACCC, symSize: 0x30 }
  - { offset: 0xDEAC, size: 0x8, addend: 0x0, symName: '__ZN85_$LT$std..sys_common..lazy_box..LazyBox$LT$T$GT$$u20$as$u20$core..ops..drop..Drop$GT$4drop17h89b4015d0864678eE', symObjAddr: 0x48EC, symBinAddr: 0x10000B598, symSize: 0x80 }
  - { offset: 0xE047, size: 0x8, addend: 0x0, symName: '__ZN54_$LT$$LP$$RP$$u20$as$u20$std..process..Termination$GT$6report17h2961a585be0e1e8aE', symObjAddr: 0x31E8, symBinAddr: 0x100009EF8, symSize: 0x10 }
  - { offset: 0xE087, size: 0x8, addend: 0x0, symName: __ZN3std3env6var_os17h07131621b2efbfc0E, symObjAddr: 0x588, symBinAddr: 0x100007320, symSize: 0x68 }
  - { offset: 0xE2E0, size: 0x8, addend: 0x0, symName: __ZN3std9panicking3try17h27b64626d95a6b12E, symObjAddr: 0x9F4, symBinAddr: 0x10000778C, symSize: 0x84 }
  - { offset: 0xE388, size: 0x8, addend: 0x0, symName: __ZN3std9panicking3try17h5449f912459209f7E, symObjAddr: 0xA78, symBinAddr: 0x100007810, symSize: 0x88 }
  - { offset: 0xE435, size: 0x8, addend: 0x0, symName: __ZN3std9panicking3try7do_call17h245367497f4f9f24E, symObjAddr: 0xB00, symBinAddr: 0x100007898, symSize: 0x44 }
  - { offset: 0xE522, size: 0x8, addend: 0x0, symName: __ZN3std9panicking3try7do_call17h512b7dc410ad3fb7E, symObjAddr: 0xB44, symBinAddr: 0x1000078DC, symSize: 0x44 }
  - { offset: 0xE60E, size: 0x8, addend: 0x0, symName: __ZN3std9panicking3try8do_catch17h2473b4c29a92c208E, symObjAddr: 0xB88, symBinAddr: 0x100007920, symSize: 0x80 }
  - { offset: 0xE6CF, size: 0x8, addend: 0x0, symName: __ZN3std9panicking3try8do_catch17h751d5b82b638e7d8E, symObjAddr: 0xC08, symBinAddr: 0x1000079A0, symSize: 0x80 }
  - { offset: 0xF8AA, size: 0x8, addend: 0x0, symName: '__ZN4core3ptr8non_null16NonNull$LT$T$GT$13new_unchecked18precondition_check17ha7dbc35efb92c0e0E', symObjAddr: 0x2478, symBinAddr: 0x1000091B8, symSize: 0x3C }
  - { offset: 0x10246, size: 0x8, addend: 0x0, symName: '__ZN4core3ptr9const_ptr33_$LT$impl$u20$$BP$const$u20$T$GT$7sub_ptr17h726e163cff5c93ecE', symObjAddr: 0x2604, symBinAddr: 0x100009314, symSize: 0x68 }
  - { offset: 0x102BF, size: 0x8, addend: 0x0, symName: '__ZN4core3ptr9const_ptr33_$LT$impl$u20$$BP$const$u20$T$GT$7sub_ptr17h85c1e30f4a8581a9E', symObjAddr: 0x266C, symBinAddr: 0x10000937C, symSize: 0x68 }
  - { offset: 0x1033D, size: 0x8, addend: 0x0, symName: '__ZN4core3ptr9const_ptr33_$LT$impl$u20$$BP$const$u20$T$GT$7sub_ptr18precondition_check17h15cc3a1efa59d01dE', symObjAddr: 0x26D4, symBinAddr: 0x1000093E4, symSize: 0x40 }
  - { offset: 0x105AA, size: 0x8, addend: 0x0, symName: '__ZN4core3ptr101drop_in_place$LT$alloc..sync..Arc$LT$std..sync..mutex..Mutex$LT$alloc..vec..Vec$LT$u8$GT$$GT$$GT$$GT$17ha61ed692d4d26120E', symObjAddr: 0x15FC, symBinAddr: 0x10000836C, symSize: 0x24 }
  - { offset: 0x105D9, size: 0x8, addend: 0x0, symName: '__ZN4core3ptr101drop_in_place$LT$std..io..error..ErrorData$LT$alloc..boxed..Box$LT$std..io..error..Custom$GT$$GT$$GT$17he7f5a29c979e50adE', symObjAddr: 0x1620, symBinAddr: 0x100008390, symSize: 0x48 }
  - { offset: 0x10608, size: 0x8, addend: 0x0, symName: '__ZN4core3ptr103drop_in_place$LT$alloc..sync..Weak$LT$std..thread..scoped..ScopeData$C$$RF$alloc..alloc..Global$GT$$GT$17hfb8e47ad00a90d28E', symObjAddr: 0x1668, symBinAddr: 0x1000083D8, symSize: 0x24 }
  - { offset: 0x10637, size: 0x8, addend: 0x0, symName: '__ZN4core3ptr103drop_in_place$LT$core..option..Option$LT$alloc..sync..Arc$LT$std..thread..scoped..ScopeData$GT$$GT$$GT$17h7c9a54faf0ec3587E', symObjAddr: 0x168C, symBinAddr: 0x1000083FC, symSize: 0x44 }
  - { offset: 0x10666, size: 0x8, addend: 0x0, symName: '__ZN4core3ptr108drop_in_place$LT$alloc..sync..Weak$LT$std..thread..Packet$LT$$LP$$RP$$GT$$C$$RF$alloc..alloc..Global$GT$$GT$17h00fe13f0420944dfE', symObjAddr: 0x16D0, symBinAddr: 0x100008440, symSize: 0x24 }
  - { offset: 0x10695, size: 0x8, addend: 0x0, symName: '__ZN4core3ptr109drop_in_place$LT$std..sys_common..lazy_box..LazyBox$LT$std..sys..sync..mutex..pthread..AllocatedMutex$GT$$GT$17h55de1521dbad26bbE', symObjAddr: 0x16F4, symBinAddr: 0x100008464, symSize: 0x24 }
  - { offset: 0x106C4, size: 0x8, addend: 0x0, symName: '__ZN4core3ptr118drop_in_place$LT$alloc..boxed..Box$LT$dyn$u20$core..error..Error$u2b$core..marker..Send$u2b$core..marker..Sync$GT$$GT$17h9356c3da12d9bb11E', symObjAddr: 0x1718, symBinAddr: 0x100008488, symSize: 0x6C }
  - { offset: 0x106F3, size: 0x8, addend: 0x0, symName: '__ZN4core3ptr129drop_in_place$LT$alloc..sync..Weak$LT$std..sync..mutex..Mutex$LT$alloc..vec..Vec$LT$u8$GT$$GT$$C$$RF$alloc..alloc..Global$GT$$GT$17hc53d5ce5e0d2d84dE', symObjAddr: 0x1784, symBinAddr: 0x1000084F4, symSize: 0x24 }
  - { offset: 0x10722, size: 0x8, addend: 0x0, symName: '__ZN4core3ptr129drop_in_place$LT$core..option..Option$LT$alloc..sync..Arc$LT$std..sync..mutex..Mutex$LT$alloc..vec..Vec$LT$u8$GT$$GT$$GT$$GT$$GT$17h60db5359ffecd2baE', symObjAddr: 0x17A8, symBinAddr: 0x100008518, symSize: 0x44 }
  - { offset: 0x10751, size: 0x8, addend: 0x0, symName: '__ZN4core3ptr130drop_in_place$LT$core..result..Result$LT$$LP$$RP$$C$alloc..boxed..Box$LT$dyn$u20$core..any..Any$u2b$core..marker..Send$GT$$GT$$GT$17hfac514d06ad37277E', symObjAddr: 0x17EC, symBinAddr: 0x10000855C, symSize: 0x44 }
  - { offset: 0x10780, size: 0x8, addend: 0x0, symName: '__ZN4core3ptr134drop_in_place$LT$std..thread..Builder..spawn_unchecked_..MaybeDangling$LT$simple_tcp_server..main..$u7b$$u7b$closure$u7d$$u7d$$GT$$GT$17h208ed7f5387a5209E', symObjAddr: 0x1830, symBinAddr: 0x1000085A0, symSize: 0x24 }
  - { offset: 0x107B4, size: 0x8, addend: 0x0, symName: __ZN4core3ptr13read_volatile18precondition_check17h78de9b1b3191def2E, symObjAddr: 0x1854, symBinAddr: 0x1000085C4, symSize: 0x54 }
  - { offset: 0x107EB, size: 0x8, addend: 0x0, symName: '__ZN4core3ptr158drop_in_place$LT$core..option..Option$LT$core..result..Result$LT$$LP$$RP$$C$alloc..boxed..Box$LT$dyn$u20$core..any..Any$u2b$core..marker..Send$GT$$GT$$GT$$GT$17h0eab081ebceb0be4E', symObjAddr: 0x18A8, symBinAddr: 0x100008618, symSize: 0x40 }
  - { offset: 0x1081A, size: 0x8, addend: 0x0, symName: '__ZN4core3ptr159drop_in_place$LT$std..thread..Builder..spawn_unchecked_$LT$simple_tcp_server..main..$u7b$$u7b$closure$u7d$$u7d$$C$$LP$$RP$$GT$..$u7b$$u7b$closure$u7d$$u7d$$GT$17h7020d1b81fca7e3cE', symObjAddr: 0x18E8, symBinAddr: 0x100008658, symSize: 0xC0 }
  - { offset: 0x10849, size: 0x8, addend: 0x0, symName: '__ZN4core3ptr188drop_in_place$LT$$LT$alloc..vec..into_iter..IntoIter$LT$T$C$A$GT$$u20$as$u20$core..ops..drop..Drop$GT$..drop..DropGuard$LT$core..net..socket_addr..SocketAddr$C$alloc..alloc..Global$GT$$GT$17h8670d53cbc7a687cE', symObjAddr: 0x19A8, symBinAddr: 0x100008718, symSize: 0x24 }
  - { offset: 0x10878, size: 0x8, addend: 0x0, symName: '__ZN4core3ptr188drop_in_place$LT$core..cell..UnsafeCell$LT$core..option..Option$LT$core..result..Result$LT$$LP$$RP$$C$alloc..boxed..Box$LT$dyn$u20$core..any..Any$u2b$core..marker..Send$GT$$GT$$GT$$GT$$GT$17h63473231617b6162E', symObjAddr: 0x19CC, symBinAddr: 0x10000873C, symSize: 0x24 }
  - { offset: 0x108A7, size: 0x8, addend: 0x0, symName: '__ZN4core3ptr193drop_in_place$LT$$LT$alloc..vec..into_iter..IntoIter$LT$T$C$A$GT$$u20$as$u20$core..ops..drop..Drop$GT$..drop..DropGuard$LT$std..thread..JoinHandle$LT$$LP$$RP$$GT$$C$alloc..alloc..Global$GT$$GT$17hb1fa41c17a0993e0E', symObjAddr: 0x19F0, symBinAddr: 0x100008760, symSize: 0x24 }
  - { offset: 0x108D6, size: 0x8, addend: 0x0, symName: '__ZN4core3ptr26drop_in_place$LT$usize$GT$17hd14c2baeef3a8ae7E', symObjAddr: 0x1A14, symBinAddr: 0x100008784, symSize: 0x10 }
  - { offset: 0x10905, size: 0x8, addend: 0x0, symName: '__ZN4core3ptr27drop_in_place$LT$$RF$u8$GT$17hfcbed9a69c6ac4c3E', symObjAddr: 0x1A24, symBinAddr: 0x100008794, symSize: 0x10 }
  - { offset: 0x10934, size: 0x8, addend: 0x0, symName: '__ZN4core3ptr30drop_in_place$LT$$RF$usize$GT$17h7b1a97d30652ef7eE', symObjAddr: 0x1A34, symBinAddr: 0x1000087A4, symSize: 0x10 }
  - { offset: 0x10963, size: 0x8, addend: 0x0, symName: '__ZN4core3ptr35drop_in_place$LT$std..io..Guard$GT$17h49a2c112b0816790E', symObjAddr: 0x1A44, symBinAddr: 0x1000087B4, symSize: 0x24 }
  - { offset: 0x10992, size: 0x8, addend: 0x0, symName: '__ZN4core3ptr39drop_in_place$LT$std..thread..Inner$GT$17hca1a84800e623199E', symObjAddr: 0x1A68, symBinAddr: 0x1000087D8, symSize: 0x60 }
  - { offset: 0x109C1, size: 0x8, addend: 0x0, symName: '__ZN4core3ptr40drop_in_place$LT$std..thread..Thread$GT$17hba4b5f6359a129c4E', symObjAddr: 0x1AC8, symBinAddr: 0x100008838, symSize: 0x24 }
  - { offset: 0x109F0, size: 0x8, addend: 0x0, symName: '__ZN4core3ptr42drop_in_place$LT$alloc..string..String$GT$17h80a112762a911198E', symObjAddr: 0x1AEC, symBinAddr: 0x10000885C, symSize: 0x24 }
  - { offset: 0x10A1F, size: 0x8, addend: 0x0, symName: '__ZN4core3ptr42drop_in_place$LT$std..io..error..Error$GT$17hc77ca3d26bfae5acE', symObjAddr: 0x1B10, symBinAddr: 0x100008880, symSize: 0x24 }
  - { offset: 0x10A4E, size: 0x8, addend: 0x0, symName: '__ZN4core3ptr43drop_in_place$LT$std..io..error..Custom$GT$17hb616e9224c7f2f2eE', symObjAddr: 0x1B34, symBinAddr: 0x1000088A4, symSize: 0x24 }
  - { offset: 0x10A7D, size: 0x8, addend: 0x0, symName: '__ZN4core3ptr44drop_in_place$LT$std..thread..ThreadName$GT$17heaab52d63e57399aE', symObjAddr: 0x1B58, symBinAddr: 0x1000088C8, symSize: 0x54 }
  - { offset: 0x10AAC, size: 0x8, addend: 0x0, symName: '__ZN4core3ptr45drop_in_place$LT$std..net..tcp..TcpStream$GT$17h58cfbeac952e4928E', symObjAddr: 0x1BAC, symBinAddr: 0x10000891C, symSize: 0x24 }
  - { offset: 0x10ADB, size: 0x8, addend: 0x0, symName: '__ZN4core3ptr46drop_in_place$LT$alloc..vec..Vec$LT$u8$GT$$GT$17h4a8773bbea6934d3E', symObjAddr: 0x1BD0, symBinAddr: 0x100008940, symSize: 0x5C }
  - { offset: 0x10B0A, size: 0x8, addend: 0x0, symName: '__ZN4core3ptr47drop_in_place$LT$alloc..ffi..c_str..CString$GT$17h066bc918dca820e5E', symObjAddr: 0x1C2C, symBinAddr: 0x10000899C, symSize: 0x5C }
  - { offset: 0x10B39, size: 0x8, addend: 0x0, symName: '__ZN4core3ptr47drop_in_place$LT$std..ffi..os_str..OsString$GT$17h4788ceeb44440365E', symObjAddr: 0x1C88, symBinAddr: 0x1000089F8, symSize: 0x24 }
  - { offset: 0x10B68, size: 0x8, addend: 0x0, symName: '__ZN4core3ptr47drop_in_place$LT$std..net..tcp..TcpListener$GT$17h8b820a12d78e4816E', symObjAddr: 0x1CAC, symBinAddr: 0x100008A1C, symSize: 0x24 }
  - { offset: 0x10B97, size: 0x8, addend: 0x0, symName: '__ZN4core3ptr48drop_in_place$LT$alloc..ffi..c_str..NulError$GT$17h0298a1eacac78d78E', symObjAddr: 0x1CD0, symBinAddr: 0x100008A40, symSize: 0x24 }
  - { offset: 0x10BC6, size: 0x8, addend: 0x0, symName: '__ZN4core3ptr48drop_in_place$LT$std..os..fd..owned..OwnedFd$GT$17h2698d21ee0dc4ddaE', symObjAddr: 0x1CF4, symBinAddr: 0x100008A64, symSize: 0x24 }
  - { offset: 0x10BF5, size: 0x8, addend: 0x0, symName: '__ZN4core3ptr49drop_in_place$LT$std..sys..os_str..bytes..Buf$GT$17h033b949c72ee95d0E', symObjAddr: 0x1D18, symBinAddr: 0x100008A88, symSize: 0x24 }
  - { offset: 0x10C24, size: 0x8, addend: 0x0, symName: '__ZN4core3ptr50drop_in_place$LT$$RF$alloc..vec..Vec$LT$u8$GT$$GT$17h417c3b2bee6ae8a9E', symObjAddr: 0x1D3C, symBinAddr: 0x100008AAC, symSize: 0x10 }
  - { offset: 0x10C53, size: 0x8, addend: 0x0, symName: '__ZN4core3ptr51drop_in_place$LT$std..thread..scoped..ScopeData$GT$17h42e8c59211661b05E', symObjAddr: 0x1D4C, symBinAddr: 0x100008ABC, symSize: 0x24 }
  - { offset: 0x10C82, size: 0x8, addend: 0x0, symName: '__ZN4core3ptr52drop_in_place$LT$std..sys_common..net..TcpStream$GT$17hdf9f353ae3e5c5aeE', symObjAddr: 0x1D70, symBinAddr: 0x100008AE0, symSize: 0x24 }
  - { offset: 0x10CB1, size: 0x8, addend: 0x0, symName: '__ZN4core3ptr53drop_in_place$LT$alloc..raw_vec..RawVec$LT$u8$GT$$GT$17h17ac345b94ab7ee6E', symObjAddr: 0x1D94, symBinAddr: 0x100008B04, symSize: 0x24 }
  - { offset: 0x10CE0, size: 0x8, addend: 0x0, symName: '__ZN4core3ptr53drop_in_place$LT$std..sys..pal..unix..net..Socket$GT$17h4e850918da8d994aE', symObjAddr: 0x1DB8, symBinAddr: 0x100008B28, symSize: 0x24 }
  - { offset: 0x10D0F, size: 0x8, addend: 0x0, symName: '__ZN4core3ptr54drop_in_place$LT$std..sys..pal..unix..fd..FileDesc$GT$17h1c4505f9ee2bb990E', symObjAddr: 0x1DDC, symBinAddr: 0x100008B4C, symSize: 0x24 }
  - { offset: 0x10D3E, size: 0x8, addend: 0x0, symName: '__ZN4core3ptr54drop_in_place$LT$std..sys_common..net..TcpListener$GT$17h4dad56c9fe2b0cbdE', symObjAddr: 0x1E00, symBinAddr: 0x100008B70, symSize: 0x24 }
  - { offset: 0x10D6D, size: 0x8, addend: 0x0, symName: '__ZN4core3ptr56drop_in_place$LT$std..sys..pal..unix..thread..Thread$GT$17h5de901bec3fe72e0E', symObjAddr: 0x1E24, symBinAddr: 0x100008B94, symSize: 0x24 }
  - { offset: 0x10D9C, size: 0x8, addend: 0x0, symName: '__ZN4core3ptr56drop_in_place$LT$std..thread..Packet$LT$$LP$$RP$$GT$$GT$17h58852375aa35145aE', symObjAddr: 0x1E48, symBinAddr: 0x100008BB8, symSize: 0x88 }
  - { offset: 0x10DCB, size: 0x8, addend: 0x0, symName: '__ZN4core3ptr57drop_in_place$LT$std..io..error..repr_bitpacked..Repr$GT$17heeeb8b0bf307e751E', symObjAddr: 0x1ED0, symBinAddr: 0x100008C40, symSize: 0x24 }
  - { offset: 0x10DFA, size: 0x8, addend: 0x0, symName: '__ZN4core3ptr58drop_in_place$LT$$RF$core..option..Option$LT$usize$GT$$GT$17h4f9f0533f0628a66E', symObjAddr: 0x1EF4, symBinAddr: 0x100008C64, symSize: 0x10 }
  - { offset: 0x10E29, size: 0x8, addend: 0x0, symName: '__ZN4core3ptr58drop_in_place$LT$alloc..boxed..Box$LT$$u5b$u8$u5d$$GT$$GT$17h170a4937db31a4f2E', symObjAddr: 0x1F04, symBinAddr: 0x100008C74, symSize: 0x2C }
  - { offset: 0x10E58, size: 0x8, addend: 0x0, symName: '__ZN4core3ptr58drop_in_place$LT$std..sys..sync..mutex..pthread..Mutex$GT$17h57845baed7e730bdE', symObjAddr: 0x1F30, symBinAddr: 0x100008CA0, symSize: 0x24 }
  - { offset: 0x10E87, size: 0x8, addend: 0x0, symName: '__ZN4core3ptr59drop_in_place$LT$std..thread..JoinInner$LT$$LP$$RP$$GT$$GT$17h35dae86132bce49eE', symObjAddr: 0x1F54, symBinAddr: 0x100008CC4, symSize: 0x8C }
  - { offset: 0x10EB6, size: 0x8, addend: 0x0, symName: '__ZN4core3ptr60drop_in_place$LT$std..thread..JoinHandle$LT$$LP$$RP$$GT$$GT$17h5e56c76d37b214efE', symObjAddr: 0x1FE0, symBinAddr: 0x100008D50, symSize: 0x24 }
  - { offset: 0x10EE5, size: 0x8, addend: 0x0, symName: '__ZN4core3ptr63drop_in_place$LT$alloc..sync..Arc$LT$std..thread..Inner$GT$$GT$17he21a80da41ef883bE', symObjAddr: 0x2004, symBinAddr: 0x100008D74, symSize: 0x24 }
  - { offset: 0x10F14, size: 0x8, addend: 0x0, symName: '__ZN4core3ptr68drop_in_place$LT$alloc..boxed..Box$LT$std..io..error..Custom$GT$$GT$17h29c374165e389b8bE', symObjAddr: 0x2058, symBinAddr: 0x100008D98, symSize: 0x60 }
  - { offset: 0x10F43, size: 0x8, addend: 0x0, symName: '__ZN4core3ptr70drop_in_place$LT$$u5b$std..thread..JoinHandle$LT$$LP$$RP$$GT$$u5d$$GT$17h59f257fd8f64d775E', symObjAddr: 0x20B8, symBinAddr: 0x100008DF8, symSize: 0xC4 }
  - { offset: 0x10F72, size: 0x8, addend: 0x0, symName: '__ZN4core3ptr70drop_in_place$LT$core..option..Option$LT$alloc..string..String$GT$$GT$17h5905be5496390825E', symObjAddr: 0x217C, symBinAddr: 0x100008EBC, symSize: 0x48 }
  - { offset: 0x10FA1, size: 0x8, addend: 0x0, symName: '__ZN4core3ptr70drop_in_place$LT$core..option..Option$LT$std..io..error..Error$GT$$GT$17h41e0098ca088662eE', symObjAddr: 0x21C4, symBinAddr: 0x100008F04, symSize: 0x44 }
  - { offset: 0x10FD0, size: 0x8, addend: 0x0, symName: '__ZN4core3ptr72drop_in_place$LT$std..sys..pal..unix..thread_parking..darwin..Parker$GT$17h733a7f54264566d6E', symObjAddr: 0x2208, symBinAddr: 0x100008F48, symSize: 0x24 }
  - { offset: 0x10FFF, size: 0x8, addend: 0x0, symName: '__ZN4core3ptr73drop_in_place$LT$simple_tcp_server..main..$u7b$$u7b$closure$u7d$$u7d$$GT$17ha5ee06a90db9edb1E', symObjAddr: 0x222C, symBinAddr: 0x100008F6C, symSize: 0x24 }
  - { offset: 0x1102E, size: 0x8, addend: 0x0, symName: '__ZN4core3ptr75drop_in_place$LT$alloc..sync..Arc$LT$std..thread..scoped..ScopeData$GT$$GT$17h3bb3448b4b064361E', symObjAddr: 0x2250, symBinAddr: 0x100008F90, symSize: 0x24 }
  - { offset: 0x1105D, size: 0x8, addend: 0x0, symName: '__ZN4core3ptr76drop_in_place$LT$core..cell..UnsafeCell$LT$alloc..vec..Vec$LT$u8$GT$$GT$$GT$17h6996aff036274311E', symObjAddr: 0x2274, symBinAddr: 0x100008FB4, symSize: 0x24 }
  - { offset: 0x1108C, size: 0x8, addend: 0x0, symName: '__ZN4core3ptr77drop_in_place$LT$std..sync..mutex..Mutex$LT$alloc..vec..Vec$LT$u8$GT$$GT$$GT$17h8fbc74e78d1b62e2E', symObjAddr: 0x2298, symBinAddr: 0x100008FD8, symSize: 0x60 }
  - { offset: 0x110BB, size: 0x8, addend: 0x0, symName: '__ZN4core3ptr78drop_in_place$LT$core..result..Result$LT$usize$C$std..io..error..Error$GT$$GT$17hc5ef501fdb52a6b4E', symObjAddr: 0x22F8, symBinAddr: 0x100009038, symSize: 0x40 }
  - { offset: 0x110EA, size: 0x8, addend: 0x0, symName: '__ZN4core3ptr80drop_in_place$LT$alloc..sync..Arc$LT$std..thread..Packet$LT$$LP$$RP$$GT$$GT$$GT$17h3f840e3e75c9bf2bE', symObjAddr: 0x2338, symBinAddr: 0x100009078, symSize: 0x24 }
  - { offset: 0x11119, size: 0x8, addend: 0x0, symName: '__ZN4core3ptr81drop_in_place$LT$core..result..Result$LT$$LP$$RP$$C$std..io..error..Error$GT$$GT$17ha04edf865ea7ce93E', symObjAddr: 0x235C, symBinAddr: 0x10000909C, symSize: 0x44 }
  - { offset: 0x11148, size: 0x8, addend: 0x0, symName: '__ZN4core3ptr83drop_in_place$LT$alloc..vec..Vec$LT$std..thread..JoinHandle$LT$$LP$$RP$$GT$$GT$$GT$17h3e979630bb0cc38dE', symObjAddr: 0x23A0, symBinAddr: 0x1000090E0, symSize: 0x5C }
  - { offset: 0x11177, size: 0x8, addend: 0x0, symName: '__ZN4core3ptr85drop_in_place$LT$alloc..raw_vec..RawVec$LT$core..net..socket_addr..SocketAddr$GT$$GT$17h2fc5775adaec0568E', symObjAddr: 0x23FC, symBinAddr: 0x10000913C, symSize: 0x24 }
  - { offset: 0x111A6, size: 0x8, addend: 0x0, symName: '__ZN4core3ptr85drop_in_place$LT$alloc..sync..ArcInner$LT$std..thread..Packet$LT$$LP$$RP$$GT$$GT$$GT$17ha443ebc06503780dE', symObjAddr: 0x2420, symBinAddr: 0x100009160, symSize: 0x24 }
  - { offset: 0x111D5, size: 0x8, addend: 0x0, symName: '__ZN4core3ptr85drop_in_place$LT$core..pin..Pin$LT$alloc..sync..Arc$LT$std..thread..Inner$GT$$GT$$GT$17h154d1b9e91658e17E', symObjAddr: 0x2444, symBinAddr: 0x100009184, symSize: 0x24 }
  - { offset: 0x11204, size: 0x8, addend: 0x0, symName: '__ZN4core3ptr85drop_in_place$LT$std..rt..lang_start$LT$$LP$$RP$$GT$..$u7b$$u7b$closure$u7d$$u7d$$GT$17h29dab4dbff611230E', symObjAddr: 0x2468, symBinAddr: 0x1000091A8, symSize: 0x10 }
  - { offset: 0x11233, size: 0x8, addend: 0x0, symName: '__ZN4core3ptr90drop_in_place$LT$alloc..raw_vec..RawVec$LT$std..thread..JoinHandle$LT$$LP$$RP$$GT$$GT$$GT$17h8c57317be25d2929E', symObjAddr: 0x24B4, symBinAddr: 0x1000091F4, symSize: 0x24 }
  - { offset: 0x11262, size: 0x8, addend: 0x0, symName: '__ZN4core3ptr91drop_in_place$LT$alloc..boxed..Box$LT$dyn$u20$core..any..Any$u2b$core..marker..Send$GT$$GT$17h485c4bdea625cb3fE', symObjAddr: 0x24D8, symBinAddr: 0x100009218, symSize: 0x6C }
  - { offset: 0x11291, size: 0x8, addend: 0x0, symName: '__ZN4core3ptr91drop_in_place$LT$alloc..sync..Weak$LT$std..thread..Inner$C$$RF$alloc..alloc..Global$GT$$GT$17h1691fc249c6683b5E', symObjAddr: 0x2544, symBinAddr: 0x100009284, symSize: 0x24 }
  - { offset: 0x112C0, size: 0x8, addend: 0x0, symName: '__ZN4core3ptr94drop_in_place$LT$alloc..vec..into_iter..IntoIter$LT$core..net..socket_addr..SocketAddr$GT$$GT$17h54db9310b93609afE', symObjAddr: 0x2598, symBinAddr: 0x1000092A8, symSize: 0x24 }
  - { offset: 0x112EF, size: 0x8, addend: 0x0, symName: '__ZN4core3ptr97drop_in_place$LT$std..io..Write..write_fmt..Adapter$LT$std..sys..pal..unix..stdio..Stderr$GT$$GT$17hdea7d49bf52a0949E', symObjAddr: 0x25BC, symBinAddr: 0x1000092CC, symSize: 0x24 }
  - { offset: 0x1131E, size: 0x8, addend: 0x0, symName: '__ZN4core3ptr99drop_in_place$LT$alloc..vec..into_iter..IntoIter$LT$std..thread..JoinHandle$LT$$LP$$RP$$GT$$GT$$GT$17hdbd2deb470f3c242E', symObjAddr: 0x25E0, symBinAddr: 0x1000092F0, symSize: 0x24 }
  - { offset: 0x11788, size: 0x8, addend: 0x0, symName: '__ZN42_$LT$$RF$T$u20$as$u20$core..fmt..Debug$GT$3fmt17h3541d756a5e150faE', symObjAddr: 0xC88, symBinAddr: 0x100007A20, symSize: 0x30 }
  - { offset: 0x117CE, size: 0x8, addend: 0x0, symName: '__ZN42_$LT$$RF$T$u20$as$u20$core..fmt..Debug$GT$3fmt17h4d622f690dfae76aE', symObjAddr: 0xCB8, symBinAddr: 0x100007A50, symSize: 0x30 }
  - { offset: 0x11814, size: 0x8, addend: 0x0, symName: '__ZN42_$LT$$RF$T$u20$as$u20$core..fmt..Debug$GT$3fmt17h6a62b91e15a3dda3E', symObjAddr: 0xCE8, symBinAddr: 0x100007A80, symSize: 0x30 }
  - { offset: 0x11860, size: 0x8, addend: 0x0, symName: '__ZN48_$LT$$u5b$T$u5d$$u20$as$u20$core..fmt..Debug$GT$3fmt17h056d595bfd6d2de1E', symObjAddr: 0xD18, symBinAddr: 0x100007AB0, symSize: 0x98 }
  - { offset: 0x11A7D, size: 0x8, addend: 0x0, symName: '__ZN4core3fmt3num49_$LT$impl$u20$core..fmt..Debug$u20$for$u20$u8$GT$3fmt17h9303474d603f0924E', symObjAddr: 0xF60, symBinAddr: 0x100007CD0, symSize: 0x90 }
  - { offset: 0x11B13, size: 0x8, addend: 0x0, symName: '__ZN4core3fmt3num52_$LT$impl$u20$core..fmt..Debug$u20$for$u20$usize$GT$3fmt17ha6f35e97e385994fE', symObjAddr: 0xFF0, symBinAddr: 0x100007D60, symSize: 0x90 }
  - { offset: 0x11C65, size: 0x8, addend: 0x0, symName: '__ZN4core3cmp5impls50_$LT$impl$u20$core..cmp..Ord$u20$for$u20$usize$GT$3cmp17hbf13429f6d678d7fE', symObjAddr: 0xEFC, symBinAddr: 0x100007C6C, symSize: 0x38 }
  - { offset: 0x11CA8, size: 0x8, addend: 0x0, symName: '__ZN4core3cmp5impls56_$LT$impl$u20$core..cmp..PartialEq$u20$for$u20$usize$GT$2eq17h2d23ab047ff53752E', symObjAddr: 0xF34, symBinAddr: 0x100007CA4, symSize: 0x2C }
  - { offset: 0x11EB1, size: 0x8, addend: 0x0, symName: __ZN4core5slice3raw14from_raw_parts18precondition_check17h394c8f033bb7fce1E, symObjAddr: 0x2DCC, symBinAddr: 0x100009ADC, symSize: 0xD4 }
  - { offset: 0x11F42, size: 0x8, addend: 0x0, symName: __ZN4core5slice3raw18from_raw_parts_mut18precondition_check17h3e28c84e35bcc365E, symObjAddr: 0x2EA0, symBinAddr: 0x100009BB0, symSize: 0xD4 }
  - { offset: 0x12042, size: 0x8, addend: 0x0, symName: '__ZN106_$LT$core..ops..range..Range$LT$usize$GT$$u20$as$u20$core..slice..index..SliceIndex$LT$$u5b$T$u5d$$GT$$GT$13get_unchecked18precondition_check17h52f213d47facb34aE', symObjAddr: 0x88, symBinAddr: 0x100006E20, symSize: 0x60 }
  - { offset: 0x1208C, size: 0x8, addend: 0x0, symName: '__ZN106_$LT$core..ops..range..Range$LT$usize$GT$$u20$as$u20$core..slice..index..SliceIndex$LT$$u5b$T$u5d$$GT$$GT$17get_unchecked_mut18precondition_check17h6d333d2404fff95cE', symObjAddr: 0xE8, symBinAddr: 0x100006E80, symSize: 0x60 }
  - { offset: 0x12244, size: 0x8, addend: 0x0, symName: '__ZN75_$LT$usize$u20$as$u20$core..slice..index..SliceIndex$LT$$u5b$T$u5d$$GT$$GT$17get_unchecked_mut18precondition_check17hecc3d8096bf964b4E', symObjAddr: 0x4774, symBinAddr: 0x10000B420, symSize: 0x40 }
  - { offset: 0x122FE, size: 0x8, addend: 0x0, symName: '__ZN110_$LT$core..slice..iter..Iter$LT$T$GT$$u20$as$u20$core..iter..traits..unchecked_iterator..UncheckedIterator$GT$14next_unchecked17hc10cf8df316b19d7E', symObjAddr: 0x148, symBinAddr: 0x100006EE0, symSize: 0x78 }
  - { offset: 0x12461, size: 0x8, addend: 0x0, symName: '__ZN91_$LT$core..slice..iter..Iter$LT$T$GT$$u20$as$u20$core..iter..traits..iterator..Iterator$GT$4next17hebef8444584a99f0E', symObjAddr: 0x496C, symBinAddr: 0x10000B618, symSize: 0x90 }
  - { offset: 0x12677, size: 0x8, addend: 0x0, symName: '__ZN4core3num23_$LT$impl$u20$usize$GT$24checked_next_multiple_of17he954fbc81d75bec0E', symObjAddr: 0x1348, symBinAddr: 0x1000080B8, symSize: 0x11C }
  - { offset: 0x12F1E, size: 0x8, addend: 0x0, symName: '__ZN66_$LT$core..option..Option$LT$T$GT$$u20$as$u20$core..fmt..Debug$GT$3fmt17h75924cdafcf0ddd8E', symObjAddr: 0x42D4, symBinAddr: 0x10000AF80, symSize: 0x98 }
  - { offset: 0x12F88, size: 0x8, addend: 0x0, symName: '__ZN70_$LT$core..option..Option$LT$T$GT$$u20$as$u20$core..cmp..PartialEq$GT$2eq17h56a5be7b839c6f94E', symObjAddr: 0x4438, symBinAddr: 0x10000B0E4, symSize: 0xA8 }
  - { offset: 0x13181, size: 0x8, addend: 0x0, symName: __ZN4core3ops8function5FnMut8call_mut17ha537b1133d9edf03E, symObjAddr: 0x1464, symBinAddr: 0x1000081D4, symSize: 0x30 }
  - { offset: 0x131CB, size: 0x8, addend: 0x0, symName: '__ZN4core3ops8function6FnOnce40call_once$u7b$$u7b$vtable.shim$u7d$$u7d$17h02891f4612ba2540E', symObjAddr: 0x1494, symBinAddr: 0x100008204, symSize: 0x24 }
  - { offset: 0x1320B, size: 0x8, addend: 0x0, symName: '__ZN4core3ops8function6FnOnce40call_once$u7b$$u7b$vtable.shim$u7d$$u7d$17h6e2ee9352e888ecbE', symObjAddr: 0x14B8, symBinAddr: 0x100008228, symSize: 0x28 }
  - { offset: 0x1324F, size: 0x8, addend: 0x0, symName: __ZN4core3ops8function6FnOnce9call_once17h1abd228607534d37E, symObjAddr: 0x14E0, symBinAddr: 0x100008250, symSize: 0x20 }
  - { offset: 0x1328F, size: 0x8, addend: 0x0, symName: __ZN4core3ops8function6FnOnce9call_once17h5120c2f5e60c2660E, symObjAddr: 0x1500, symBinAddr: 0x100008270, symSize: 0x1C }
  - { offset: 0x132D3, size: 0x8, addend: 0x0, symName: __ZN4core3ops8function6FnOnce9call_once17hb93d182b04b39399E, symObjAddr: 0x151C, symBinAddr: 0x10000828C, symSize: 0x44 }
  - { offset: 0x13313, size: 0x8, addend: 0x0, symName: __ZN4core3ops8function6FnOnce9call_once17he13cc9a58574c7b4E, symObjAddr: 0x1560, symBinAddr: 0x1000082D0, symSize: 0x24 }
  - { offset: 0x13357, size: 0x8, addend: 0x0, symName: __ZN4core3ops8function6FnOnce9call_once17he6cffcb9885798e8E, symObjAddr: 0x1584, symBinAddr: 0x1000082F4, symSize: 0x4C }
  - { offset: 0x1339B, size: 0x8, addend: 0x0, symName: __ZN4core3ops8function6FnOnce9call_once17hf6973b9b2d425d9dE, symObjAddr: 0x15D0, symBinAddr: 0x100008340, symSize: 0x2C }
  - { offset: 0x13C48, size: 0x8, addend: 0x0, symName: __ZN4core10intrinsics11write_bytes18precondition_check17ha74380c97e550243E, symObjAddr: 0xDB0, symBinAddr: 0x100007B48, symSize: 0x54 }
  - { offset: 0x13C84, size: 0x8, addend: 0x0, symName: __ZN4core10intrinsics19copy_nonoverlapping18precondition_check17h9ad3200f9fef5171E, symObjAddr: 0xE04, symBinAddr: 0x100007B9C, symSize: 0xD0 }
  - { offset: 0x13E07, size: 0x8, addend: 0x0, symName: __ZN4core4char7methods15encode_utf8_raw17hb5dedcde254f74cdE, symObjAddr: 0x2714, symBinAddr: 0x100009424, symSize: 0x3B0 }
  - { offset: 0x14191, size: 0x8, addend: 0x0, symName: __ZN4core4hint16assert_unchecked18precondition_check17h827c164bb05c765fE, symObjAddr: 0x2AC4, symBinAddr: 0x1000097D4, symSize: 0x38 }
  - { offset: 0x141BF, size: 0x8, addend: 0x0, symName: __ZN4core4hint21unreachable_unchecked18precondition_check17h257076075fe4c8f9E, symObjAddr: 0x2AFC, symBinAddr: 0x10000980C, symSize: 0x1C }
  - { offset: 0x143D2, size: 0x8, addend: 0x0, symName: __ZN4core5alloc6layout6Layout5array5inner17h233109657dbba675E, symObjAddr: 0x2C78, symBinAddr: 0x100009988, symSize: 0xF0 }
  - { offset: 0x145F1, size: 0x8, addend: 0x0, symName: '__ZN50_$LT$T$u20$as$u20$core..convert..Into$LT$U$GT$$GT$4into17hb67cf07fcc8fbb98E', symObjAddr: 0x31D4, symBinAddr: 0x100009EE4, symSize: 0x14 }
  - { offset: 0x146DF, size: 0x8, addend: 0x0, symName: '__ZN55_$LT$$RF$T$u20$as$u20$core..convert..AsRef$LT$U$GT$$GT$6as_ref17ha8de79e9258fb080E', symObjAddr: 0x31F8, symBinAddr: 0x100009F08, symSize: 0x30 }
  - { offset: 0x1473F, size: 0x8, addend: 0x0, symName: '__ZN63_$LT$I$u20$as$u20$core..iter..traits..collect..IntoIterator$GT$9into_iter17h7d1fa1946486e9a6E', symObjAddr: 0x4050, symBinAddr: 0x10000ACFC, symSize: 0x1C }
  - { offset: 0x14776, size: 0x8, addend: 0x0, symName: '__ZN63_$LT$I$u20$as$u20$core..iter..traits..collect..IntoIterator$GT$9into_iter17hbc5fe6beef5a04b7E', symObjAddr: 0x406C, symBinAddr: 0x10000AD18, symSize: 0x14 }
  - { offset: 0x148AF, size: 0x8, addend: 0x0, symName: '__ZN64_$LT$alloc..ffi..c_str..NulError$u20$as$u20$core..fmt..Debug$GT$3fmt17h27dd3baa691f039bE', symObjAddr: 0x4080, symBinAddr: 0x10000AD2C, symSize: 0x5C }
  - { offset: 0x148F9, size: 0x8, addend: 0x0, symName: '__ZN66_$LT$T$u20$as$u20$alloc..ffi..c_str..CString..new..SpecNewImpl$GT$13spec_new_impl17h38d81e3b1bb55351E', symObjAddr: 0x40DC, symBinAddr: 0x10000AD88, symSize: 0x1F8 }
  - { offset: 0x14B40, size: 0x8, addend: 0x0, symName: '__ZN68_$LT$alloc..ffi..c_str..CString$u20$as$u20$core..ops..drop..Drop$GT$4drop17h0be60635fc3f9e39E', symObjAddr: 0x43A8, symBinAddr: 0x10000B054, symSize: 0x90 }
  - { offset: 0x150E8, size: 0x8, addend: 0x0, symName: __ZN5alloc7raw_vec11finish_grow17h6c9dea3ebf5075b0E, symObjAddr: 0x3258, symBinAddr: 0x100009F68, symSize: 0x33C }
  - { offset: 0x15729, size: 0x8, addend: 0x0, symName: '__ZN5alloc7raw_vec19RawVec$LT$T$C$A$GT$7reserve21do_reserve_and_handle17hbb39f709e70afcdcE', symObjAddr: 0x3EC4, symBinAddr: 0x100045D04, symSize: 0x64 }
  - { offset: 0x157A8, size: 0x8, addend: 0x0, symName: '__ZN77_$LT$alloc..raw_vec..RawVec$LT$T$C$A$GT$$u20$as$u20$core..ops..drop..Drop$GT$4drop17h1b7bbf3cb6d34c02E', symObjAddr: 0x47B4, symBinAddr: 0x10000B460, symSize: 0x68 }
  - { offset: 0x15812, size: 0x8, addend: 0x0, symName: '__ZN77_$LT$alloc..raw_vec..RawVec$LT$T$C$A$GT$$u20$as$u20$core..ops..drop..Drop$GT$4drop17h54a0c221523676b2E', symObjAddr: 0x481C, symBinAddr: 0x10000B4C8, symSize: 0x68 }
  - { offset: 0x1587C, size: 0x8, addend: 0x0, symName: '__ZN77_$LT$alloc..raw_vec..RawVec$LT$T$C$A$GT$$u20$as$u20$core..ops..drop..Drop$GT$4drop17hca5f74f52caace58E', symObjAddr: 0x4884, symBinAddr: 0x10000B530, symSize: 0x68 }
  - { offset: 0x1593D, size: 0x8, addend: 0x0, symName: '__ZN60_$LT$alloc..string..String$u20$as$u20$core..fmt..Display$GT$3fmt17h1838c0140126a676E', symObjAddr: 0x3F90, symBinAddr: 0x10000AC3C, symSize: 0x90 }
  - { offset: 0x15F06, size: 0x8, addend: 0x0, symName: '__ZN67_$LT$alloc..boxed..Box$LT$T$C$A$GT$$u20$as$u20$core..fmt..Debug$GT$3fmt17h3688d3cca56b1a15E', symObjAddr: 0x436C, symBinAddr: 0x10000B018, symSize: 0x3C }
  - { offset: 0x15F5B, size: 0x8, addend: 0x0, symName: '__ZN72_$LT$alloc..boxed..Box$LT$T$C$A$GT$$u20$as$u20$core..ops..drop..Drop$GT$4drop17h46744fd80feaf8e5E', symObjAddr: 0x44E0, symBinAddr: 0x10000B18C, symSize: 0xA4 }
  - { offset: 0x16180, size: 0x8, addend: 0x0, symName: '__ZN72_$LT$alloc..boxed..Box$LT$T$C$A$GT$$u20$as$u20$core..ops..drop..Drop$GT$4drop17h5c26007407c9985eE', symObjAddr: 0x4584, symBinAddr: 0x10000B230, symSize: 0x98 }
  - { offset: 0x163A5, size: 0x8, addend: 0x0, symName: '__ZN72_$LT$alloc..boxed..Box$LT$T$C$A$GT$$u20$as$u20$core..ops..drop..Drop$GT$4drop17h825b1a18b50d48d3E', symObjAddr: 0x461C, symBinAddr: 0x10000B2C8, symSize: 0xAC }
  - { offset: 0x165CA, size: 0x8, addend: 0x0, symName: '__ZN72_$LT$alloc..boxed..Box$LT$T$C$A$GT$$u20$as$u20$core..ops..drop..Drop$GT$4drop17h98e9bd4481a5bb9dE', symObjAddr: 0x46C8, symBinAddr: 0x10000B374, symSize: 0xAC }
  - { offset: 0x16C75, size: 0x8, addend: 0x0, symName: __ZN3std3net3tcp11TcpListener4bind17h99f0e7b55de9e6efE, symObjAddr: 0x638, symBinAddr: 0x1000073D0, symSize: 0x7C }
  - { offset: 0x16CFE, size: 0x8, addend: 0x0, symName: __ZN3std3net3tcp11TcpListener8incoming17h74094b4fb08bd09dE, symObjAddr: 0x6B4, symBinAddr: 0x10000744C, symSize: 0x1C }
  - { offset: 0x17171, size: 0x8, addend: 0x0, symName: __ZN4core3fmt9Arguments23as_statically_known_str17h37bef525128e6711E, symObjAddr: 0x1080, symBinAddr: 0x100007DF0, symSize: 0x12C }
  - { offset: 0x17211, size: 0x8, addend: 0x0, symName: __ZN4core3fmt9Arguments6new_v117h1a1dfc06f506f789E, symObjAddr: 0x11AC, symBinAddr: 0x100007F1C, symSize: 0xFC }
  - { offset: 0x1726E, size: 0x8, addend: 0x0, symName: __ZN4core3fmt9Arguments9new_const17hbb5da1b6a064f690E, symObjAddr: 0x12A8, symBinAddr: 0x100008018, symSize: 0xA0 }
  - { offset: 0x17417, size: 0x8, addend: 0x0, symName: __ZN4core4time8Duration3new17hc518b350c86f4b08E, symObjAddr: 0x2B18, symBinAddr: 0x100009828, symSize: 0x13C }
  - { offset: 0x1751B, size: 0x8, addend: 0x0, symName: __ZN4core4time8Duration9from_secs17h9a0f7fb224b1ae5fE, symObjAddr: 0x2C54, symBinAddr: 0x100009964, symSize: 0x24 }
  - { offset: 0x175E3, size: 0x8, addend: 0x0, symName: __ZN4core5alloc6layout6Layout8dangling17hd8b52bfcdc211ebdE, symObjAddr: 0x2D68, symBinAddr: 0x100009A78, symSize: 0x64 }
  - { offset: 0x176DB, size: 0x8, addend: 0x0, symName: '__ZN4core6option15Option$LT$T$GT$11map_or_else17h9051ee4fc0b990a5E', symObjAddr: 0x2F74, symBinAddr: 0x100009C84, symSize: 0xE8 }
  - { offset: 0x1777E, size: 0x8, addend: 0x0, symName: '__ZN4core6result19Result$LT$T$C$E$GT$6expect17h0e6f7b21b3515b03E', symObjAddr: 0x305C, symBinAddr: 0x100009D6C, symSize: 0xBC }
  - { offset: 0x177E1, size: 0x8, addend: 0x0, symName: '__ZN4core6result19Result$LT$T$C$E$GT$6expect17hef0638a3d6f83df9E', symObjAddr: 0x3118, symBinAddr: 0x100009E28, symSize: 0xBC }
  - { offset: 0x17854, size: 0x8, addend: 0x0, symName: __ZN5alloc6string6String3new17hc33d9cbf06093074E, symObjAddr: 0x3228, symBinAddr: 0x100009F38, symSize: 0x30 }
  - { offset: 0x17A73, size: 0x8, addend: 0x0, symName: '__ZN5alloc7raw_vec19RawVec$LT$T$C$A$GT$11try_reserve17h41ec3633947b9e3fE', symObjAddr: 0x3594, symBinAddr: 0x10000A2A4, symSize: 0x164 }
  - { offset: 0x17D5C, size: 0x8, addend: 0x0, symName: '__ZN5alloc7raw_vec19RawVec$LT$T$C$A$GT$14current_memory17h2598e737bf4ff390E', symObjAddr: 0x36F8, symBinAddr: 0x10000A408, symSize: 0xA4 }
  - { offset: 0x17F64, size: 0x8, addend: 0x0, symName: '__ZN5alloc7raw_vec19RawVec$LT$T$C$A$GT$14current_memory17h87ba1787c123c755E', symObjAddr: 0x379C, symBinAddr: 0x10000A4AC, symSize: 0xA4 }
  - { offset: 0x18152, size: 0x8, addend: 0x0, symName: '__ZN5alloc7raw_vec19RawVec$LT$T$C$A$GT$14current_memory17hbe93570da4569159E', symObjAddr: 0x3840, symBinAddr: 0x10000A550, symSize: 0xA0 }
  - { offset: 0x183B7, size: 0x8, addend: 0x0, symName: '__ZN5alloc7raw_vec19RawVec$LT$T$C$A$GT$14grow_amortized17hb131b0b77a0a0339E', symObjAddr: 0x38E0, symBinAddr: 0x10000A5F0, symSize: 0x2F4 }
  - { offset: 0x189B7, size: 0x8, addend: 0x0, symName: '__ZN5alloc7raw_vec19RawVec$LT$T$C$A$GT$14grow_amortized17hfd75c3a3325a6a09E', symObjAddr: 0x3BD4, symBinAddr: 0x10000A8E4, symSize: 0x2F0 }
  - { offset: 0x18EE0, size: 0x8, addend: 0x0, symName: '__ZN5alloc7raw_vec19RawVec$LT$T$C$A$GT$8grow_one17hf87d9a626571480bE', symObjAddr: 0x3F28, symBinAddr: 0x10000ABD4, symSize: 0x68 }
  - { offset: 0x19B99, size: 0x8, addend: 0x0, symName: '__ZN103_$LT$alloc..vec..into_iter..IntoIter$LT$T$C$A$GT$$u20$as$u20$core..iter..traits..iterator..Iterator$GT$4next17h37c5bdde8e012253E', symObjAddr: 0x0, symBinAddr: 0x10000B6FC, symSize: 0xEC }
  - { offset: 0x1A29D, size: 0x8, addend: 0x0, symName: __ZN3std10sys_common9backtrace28__rust_begin_short_backtrace17h21ff9a93c4c11baaE, symObjAddr: 0x7B0, symBinAddr: 0x10000BEAC, symSize: 0x20 }
  - { offset: 0x1A306, size: 0x8, addend: 0x0, symName: __ZN3std10sys_common9backtrace28__rust_begin_short_backtrace17h310a4d7c8c1eaad7E, symObjAddr: 0x7D0, symBinAddr: 0x10000BECC, symSize: 0x24 }
  - { offset: 0x1A3B5, size: 0x8, addend: 0x0, symName: '__ZN69_$LT$std..os..fd..owned..OwnedFd$u20$as$u20$core..ops..drop..Drop$GT$4drop17hbdfba23b55ce1494E', symObjAddr: 0x24E0, symBinAddr: 0x10000DBA0, symSize: 0x28 }
  - { offset: 0x1BF1E, size: 0x8, addend: 0x0, symName: '__ZN42_$LT$$RF$T$u20$as$u20$core..fmt..Debug$GT$3fmt17ha7158fd12ceb5c84E', symObjAddr: 0x928, symBinAddr: 0x10000C024, symSize: 0x30 }
  - { offset: 0x1C09A, size: 0x8, addend: 0x0, symName: __ZN4core3cmp6max_by17hbe9c23dca649fa9fE, symObjAddr: 0x990, symBinAddr: 0x10000C08C, symSize: 0xC8 }
  - { offset: 0x1C0F8, size: 0x8, addend: 0x0, symName: __ZN4core3cmp6min_by17h9d29eeca33c6ae7bE, symObjAddr: 0xA58, symBinAddr: 0x10000C154, symSize: 0xD0 }
  - { offset: 0x1C17A, size: 0x8, addend: 0x0, symName: __ZN4core9panicking13assert_failed17h2e84129e2cd7666dE, symObjAddr: 0x15BC, symBinAddr: 0x100045D68, symSize: 0x3C }
  - { offset: 0x1C257, size: 0x8, addend: 0x0, symName: __ZN4core4sync6atomic11atomic_load17h490ab3688810ad24E, symObjAddr: 0xD30, symBinAddr: 0x10000C42C, symSize: 0x158 }
  - { offset: 0x1C2D6, size: 0x8, addend: 0x0, symName: __ZN4core4sync6atomic12atomic_store17h7f0a93acbacff15bE, symObjAddr: 0xE88, symBinAddr: 0x10000C584, symSize: 0x15C }
  - { offset: 0x1C360, size: 0x8, addend: 0x0, symName: __ZN4core4sync6atomic23atomic_compare_exchange17h62a73ad7c4be0e73E, symObjAddr: 0xFE4, symBinAddr: 0x10000C6E0, symSize: 0x4F0 }
  - { offset: 0x1CF59, size: 0x8, addend: 0x0, symName: '__ZN106_$LT$core..ops..range..Range$LT$usize$GT$$u20$as$u20$core..slice..index..SliceIndex$LT$$u5b$T$u5d$$GT$$GT$17get_unchecked_mut17h73758584020b1ee3E', symObjAddr: 0x2C4, symBinAddr: 0x10000B9C0, symSize: 0x90 }
  - { offset: 0x1D0D8, size: 0x8, addend: 0x0, symName: '__ZN106_$LT$core..ops..range..Range$LT$usize$GT$$u20$as$u20$core..slice..index..SliceIndex$LT$$u5b$T$u5d$$GT$$GT$17get_unchecked_mut17hac083c870e215266E', symObjAddr: 0x354, symBinAddr: 0x10000BA50, symSize: 0x90 }
  - { offset: 0x1D257, size: 0x8, addend: 0x0, symName: '__ZN106_$LT$core..ops..range..Range$LT$usize$GT$$u20$as$u20$core..slice..index..SliceIndex$LT$$u5b$T$u5d$$GT$$GT$9index_mut17h621df04d6fde99baE', symObjAddr: 0x3E4, symBinAddr: 0x10000BAE0, symSize: 0x90 }
  - { offset: 0x1D29D, size: 0x8, addend: 0x0, symName: '__ZN106_$LT$core..ops..range..Range$LT$usize$GT$$u20$as$u20$core..slice..index..SliceIndex$LT$$u5b$T$u5d$$GT$$GT$9index_mut17hc1c8c48de2a7c9d0E', symObjAddr: 0x474, symBinAddr: 0x10000BB70, symSize: 0x90 }
  - { offset: 0x1D364, size: 0x8, addend: 0x0, symName: '__ZN110_$LT$core..ops..range..RangeFrom$LT$usize$GT$$u20$as$u20$core..slice..index..SliceIndex$LT$$u5b$T$u5d$$GT$$GT$5index17hb652d1d7ac0ccdddE', symObjAddr: 0x504, symBinAddr: 0x10000BC00, symSize: 0xBC }
  - { offset: 0x1D72B, size: 0x8, addend: 0x0, symName: __ZN4core5slice6memchr12memchr_naive17h46ef06fbb745555cE, symObjAddr: 0x14D4, symBinAddr: 0x10000CBD0, symSize: 0xE8 }
  - { offset: 0x1D912, size: 0x8, addend: 0x0, symName: '__ZN115_$LT$core..panic..unwind_safe..AssertUnwindSafe$LT$F$GT$$u20$as$u20$core..ops..function..FnOnce$LT$$LP$$RP$$GT$$GT$9call_once17h739715f5b8ffaf78E', symObjAddr: 0x5C0, symBinAddr: 0x10000BCBC, symSize: 0x20 }
  - { offset: 0x1D968, size: 0x8, addend: 0x0, symName: '__ZN115_$LT$core..panic..unwind_safe..AssertUnwindSafe$LT$F$GT$$u20$as$u20$core..ops..function..FnOnce$LT$$LP$$RP$$GT$$GT$9call_once17h744f8a67d0ca52cfE', symObjAddr: 0x5E0, symBinAddr: 0x10000BCDC, symSize: 0x24 }
  - { offset: 0x1DAA4, size: 0x8, addend: 0x0, symName: '__ZN48_$LT$$RF$A$u20$as$u20$core..alloc..Allocator$GT$10deallocate17h6c597c124e92fde9E', symObjAddr: 0x958, symBinAddr: 0x10000C054, symSize: 0x38 }
  - { offset: 0x1DB7E, size: 0x8, addend: 0x0, symName: __ZN4core4iter6traits10exact_size17ExactSizeIterator3len17h5a5ee3ad59dcd148E, symObjAddr: 0xBF8, symBinAddr: 0x10000C2F4, symSize: 0x9C }
  - { offset: 0x1DC0F, size: 0x8, addend: 0x0, symName: __ZN4core4iter6traits10exact_size17ExactSizeIterator3len17h8ed14ad75f3b9451E, symObjAddr: 0xC94, symBinAddr: 0x10000C390, symSize: 0x9C }
  - { offset: 0x1DD02, size: 0x8, addend: 0x0, symName: __ZN4core9ub_checks17is_nonoverlapping7runtime17h40714c6016d5cf6eE, symObjAddr: 0x15F8, symBinAddr: 0x10000CCB8, symSize: 0xE4 }
  - { offset: 0x1DEE6, size: 0x8, addend: 0x0, symName: __ZN4core9ub_checks23is_aligned_and_not_null17hb24f3bfd01b28468E, symObjAddr: 0x16DC, symBinAddr: 0x10000CD9C, symSize: 0xDC }
  - { offset: 0x1E3F3, size: 0x8, addend: 0x0, symName: '__ZN59_$LT$alloc..alloc..Global$u20$as$u20$core..clone..Clone$GT$5clone17hf2b9c16290d73273E', symObjAddr: 0x17B8, symBinAddr: 0x10000CE78, symSize: 0x10 }
  - { offset: 0x1E44B, size: 0x8, addend: 0x0, symName: '__ZN63_$LT$alloc..alloc..Global$u20$as$u20$core..alloc..Allocator$GT$10deallocate17h96a02f4e0e23e77cE', symObjAddr: 0x235C, symBinAddr: 0x10000DA1C, symSize: 0x8C }
  - { offset: 0x1E59B, size: 0x8, addend: 0x0, symName: '__ZN63_$LT$alloc..alloc..Global$u20$as$u20$core..alloc..Allocator$GT$4grow17hfafa2eda4ed7e798E', symObjAddr: 0x23E8, symBinAddr: 0x10000DAA8, symSize: 0x44 }
  - { offset: 0x1E5F6, size: 0x8, addend: 0x0, symName: '__ZN63_$LT$alloc..alloc..Global$u20$as$u20$core..alloc..Allocator$GT$8allocate17hba4131817111a632E', symObjAddr: 0x242C, symBinAddr: 0x10000DAEC, symSize: 0x34 }
  - { offset: 0x1E631, size: 0x8, addend: 0x0, symName: __ZN5alloc5alloc15exchange_malloc17h34419e0dec3fe136E, symObjAddr: 0x1C08, symBinAddr: 0x10000D2C8, symSize: 0x90 }
  - { offset: 0x1E77E, size: 0x8, addend: 0x0, symName: __ZN5alloc5alloc5alloc17h6fe99c7bbdcef169E, symObjAddr: 0x1C98, symBinAddr: 0x10000D358, symSize: 0x80 }
  - { offset: 0x1E8DD, size: 0x8, addend: 0x0, symName: '__ZN103_$LT$alloc..vec..into_iter..IntoIter$LT$T$C$A$GT$$u20$as$u20$core..iter..traits..iterator..Iterator$GT$4next17h37c5bdde8e012253E', symObjAddr: 0x0, symBinAddr: 0x10000B6FC, symSize: 0xEC }
  - { offset: 0x1EAE7, size: 0x8, addend: 0x0, symName: '__ZN103_$LT$alloc..vec..into_iter..IntoIter$LT$T$C$A$GT$$u20$as$u20$core..iter..traits..iterator..Iterator$GT$4next17ha3966755a0a156b2E', symObjAddr: 0xEC, symBinAddr: 0x10000B7E8, symSize: 0xF0 }
  - { offset: 0x1ECF1, size: 0x8, addend: 0x0, symName: '__ZN103_$LT$alloc..vec..into_iter..IntoIter$LT$T$C$A$GT$$u20$as$u20$core..iter..traits..iterator..Iterator$GT$9size_hint17h5aa5805bb33285a1E', symObjAddr: 0x1DC, symBinAddr: 0x10000B8D8, symSize: 0x74 }
  - { offset: 0x1ED7F, size: 0x8, addend: 0x0, symName: '__ZN103_$LT$alloc..vec..into_iter..IntoIter$LT$T$C$A$GT$$u20$as$u20$core..iter..traits..iterator..Iterator$GT$9size_hint17hd0b909521bc6f193E', symObjAddr: 0x250, symBinAddr: 0x10000B94C, symSize: 0x74 }
  - { offset: 0x1EE1D, size: 0x8, addend: 0x0, symName: '__ZN157_$LT$$LT$alloc..vec..into_iter..IntoIter$LT$T$C$A$GT$$u20$as$u20$core..ops..drop..Drop$GT$..drop..DropGuard$LT$T$C$A$GT$$u20$as$u20$core..ops..drop..Drop$GT$4drop17h1c94d830daf6b778E', symObjAddr: 0x6A0, symBinAddr: 0x10000BD9C, symSize: 0x88 }
  - { offset: 0x1EF20, size: 0x8, addend: 0x0, symName: '__ZN157_$LT$$LT$alloc..vec..into_iter..IntoIter$LT$T$C$A$GT$$u20$as$u20$core..ops..drop..Drop$GT$..drop..DropGuard$LT$T$C$A$GT$$u20$as$u20$core..ops..drop..Drop$GT$4drop17hc385030c4bac2aeaE', symObjAddr: 0x728, symBinAddr: 0x10000BE24, symSize: 0x88 }
  - { offset: 0x1F073, size: 0x8, addend: 0x0, symName: '__ZN86_$LT$alloc..vec..into_iter..IntoIter$LT$T$C$A$GT$$u20$as$u20$core..ops..drop..Drop$GT$4drop17h301cc70705523835E', symObjAddr: 0x2614, symBinAddr: 0x10000DCD4, symSize: 0x78 }
  - { offset: 0x1F0C5, size: 0x8, addend: 0x0, symName: '__ZN86_$LT$alloc..vec..into_iter..IntoIter$LT$T$C$A$GT$$u20$as$u20$core..ops..drop..Drop$GT$4drop17he82dfc85fe31a188E', symObjAddr: 0x268C, symBinAddr: 0x10000DD4C, symSize: 0x64 }
  - { offset: 0x1F237, size: 0x8, addend: 0x0, symName: '__ZN132_$LT$alloc..vec..Vec$LT$T$C$A$GT$$u20$as$u20$alloc..vec..spec_extend..SpecExtend$LT$$RF$T$C$core..slice..iter..Iter$LT$T$GT$$GT$$GT$11spec_extend17hdefd3c95a9f2a617E', symObjAddr: 0x604, symBinAddr: 0x10000BD00, symSize: 0x9C }
  - { offset: 0x1F6CB, size: 0x8, addend: 0x0, symName: '__ZN65_$LT$alloc..vec..Vec$LT$T$C$A$GT$$u20$as$u20$core..fmt..Debug$GT$3fmt17h99cd89680b02ff9cE', symObjAddr: 0x2460, symBinAddr: 0x10000DB20, symSize: 0x80 }
  - { offset: 0x1F88E, size: 0x8, addend: 0x0, symName: '__ZN70_$LT$alloc..vec..Vec$LT$T$C$A$GT$$u20$as$u20$core..ops..drop..Drop$GT$4drop17haf526d93bdaa6a23E', symObjAddr: 0x2508, symBinAddr: 0x10000DBC8, symSize: 0x34 }
  - { offset: 0x1F9D9, size: 0x8, addend: 0x0, symName: '__ZN70_$LT$alloc..vec..Vec$LT$T$C$A$GT$$u20$as$u20$core..ops..drop..Drop$GT$4drop17hdce4305bd5cd27c9E', symObjAddr: 0x253C, symBinAddr: 0x10000DBFC, symSize: 0x48 }
  - { offset: 0x1FB2A, size: 0x8, addend: 0x0, symName: '__ZN81_$LT$alloc..vec..Vec$LT$T$C$A$GT$$u20$as$u20$core..ops..index..Index$LT$I$GT$$GT$5index17he9d15861ac2c2046E', symObjAddr: 0x2584, symBinAddr: 0x10000DC44, symSize: 0x90 }
  - { offset: 0x1FD5E, size: 0x8, addend: 0x0, symName: '__ZN90_$LT$alloc..vec..Vec$LT$T$C$A$GT$$u20$as$u20$core..iter..traits..collect..IntoIterator$GT$9into_iter17hfbd3d5882d231ed2E', symObjAddr: 0x26F0, symBinAddr: 0x10000DDB0, symSize: 0xE8 }
  - { offset: 0x20233, size: 0x8, addend: 0x0, symName: '__ZN5alloc6string104_$LT$impl$u20$core..convert..From$LT$alloc..string..String$GT$$u20$for$u20$alloc..vec..Vec$LT$u8$GT$$GT$4from17h15b84743d17e1032E', symObjAddr: 0x2344, symBinAddr: 0x10000DA04, symSize: 0x18 }
  - { offset: 0x206E6, size: 0x8, addend: 0x0, symName: __ZN3std2io5error5Error14is_interrupted17h87819bb7744d73ddE, symObjAddr: 0x7F4, symBinAddr: 0x10000BEF0, symSize: 0x134 }
  - { offset: 0x208D3, size: 0x8, addend: 0x0, symName: __ZN4core3fmt8builders9DebugList7entries17hc2dd7b1e76e9727dE, symObjAddr: 0xB28, symBinAddr: 0x10000C224, symSize: 0xD0 }
  - { offset: 0x20A86, size: 0x8, addend: 0x0, symName: '__ZN5alloc3vec12Vec$LT$T$GT$3new17hc1ebf899af279a3eE', symObjAddr: 0x17C8, symBinAddr: 0x10000CE88, symSize: 0x14 }
  - { offset: 0x20B7B, size: 0x8, addend: 0x0, symName: '__ZN5alloc3vec16Vec$LT$T$C$A$GT$15append_elements17h3f2d256bf5d09c01E', symObjAddr: 0x17DC, symBinAddr: 0x10000CE9C, symSize: 0xD8 }
  - { offset: 0x20DB2, size: 0x8, addend: 0x0, symName: '__ZN5alloc3vec16Vec$LT$T$C$A$GT$17extend_from_slice17h9ddfc63dc5291332E', symObjAddr: 0x18B4, symBinAddr: 0x10000CF74, symSize: 0x7C }
  - { offset: 0x21013, size: 0x8, addend: 0x0, symName: '__ZN5alloc3vec16Vec$LT$T$C$A$GT$18spare_capacity_mut17h7b2e4774e79dc28eE', symObjAddr: 0x1930, symBinAddr: 0x10000CFF0, symSize: 0xBC }
  - { offset: 0x212A2, size: 0x8, addend: 0x0, symName: '__ZN5alloc3vec16Vec$LT$T$C$A$GT$4push17h13d98eb5a5ff632aE', symObjAddr: 0x19EC, symBinAddr: 0x10000D0AC, symSize: 0xF8 }
  - { offset: 0x21512, size: 0x8, addend: 0x0, symName: '__ZN5alloc3vec16Vec$LT$T$C$A$GT$7reserve17h2139f2d1b3b3f832E', symObjAddr: 0x1AE4, symBinAddr: 0x10000D1A4, symSize: 0x84 }
  - { offset: 0x2168A, size: 0x8, addend: 0x0, symName: '__ZN5alloc3vec9into_iter21IntoIter$LT$T$C$A$GT$16as_raw_mut_slice17h5751e5b4bde63444E', symObjAddr: 0x1B68, symBinAddr: 0x10000D228, symSize: 0x50 }
  - { offset: 0x217D2, size: 0x8, addend: 0x0, symName: '__ZN5alloc3vec9into_iter21IntoIter$LT$T$C$A$GT$16as_raw_mut_slice17hb95ddea1b86d524aE', symObjAddr: 0x1BB8, symBinAddr: 0x10000D278, symSize: 0x50 }
  - { offset: 0x21AF3, size: 0x8, addend: 0x0, symName: __ZN5alloc5alloc6Global10alloc_impl17he6b80d6b28621475E, symObjAddr: 0x1D18, symBinAddr: 0x10000D3D8, symSize: 0x204 }
  - { offset: 0x221B4, size: 0x8, addend: 0x0, symName: __ZN5alloc5alloc6Global9grow_impl17h293a842bca926f78E, symObjAddr: 0x1F1C, symBinAddr: 0x10000D5DC, symSize: 0x428 }
  - { offset: 0x22D84, size: 0x8, addend: 0x0, symName: __ZN17simple_tcp_server4main17h5906e803c8abf620E, symObjAddr: 0x27D8, symBinAddr: 0x10000DE98, symSize: 0x414 }
  - { offset: 0x22F2B, size: 0x8, addend: 0x0, symName: '__ZN17simple_tcp_server4main28_$u7b$$u7b$closure$u7d$$u7d$17h766168ed59f1d6e0E', symObjAddr: 0x2BEC, symBinAddr: 0x10000E2AC, symSize: 0x2F4 }
...
